target datalayout = "e-m:e-p270:32:32-p271:32:32-p272:64:64-i64:64-i128:128-f80:128-n8:16:32:64-S128"
target triple = "x86_64-pc-linux-gnu"

%struct.termios = type { i32, i32, i32, i32, i8, [32 x i8], i32, i32 }
%struct.uv_tty_s = type { ptr, ptr, i32, ptr, [2 x ptr], %union.anon, ptr, i32, i64, ptr, ptr, ptr, ptr, %struct.uv__io_s, [2 x ptr], [2 x ptr], ptr, i32, i32, ptr, %struct.termios, i32 }
%union.anon = type { [4 x ptr] }
%struct.uv__io_s = type { ptr, [2 x ptr], [2 x ptr], i32, i32, i32 }
%struct.winsize = type { i16, i16, i16, i16 }

; Function Attrs: nounwind uwtable
define dso_local i32 @uv_tty_get_winsize(ptr noundef %0, ptr noundef %1, ptr noundef %2) #0 {
  %4 = alloca i32, align 4
  %5 = alloca ptr, align 8
  %6 = alloca ptr, align 8
  %7 = alloca ptr, align 8
  %8 = alloca %struct.winsize, align 2
  %9 = alloca i32, align 4
  %10 = alloca i32, align 4
  store ptr %0, ptr %5, align 8, !tbaa !15
  store ptr %1, ptr %6, align 8, !tbaa !42
  store ptr %2, ptr %7, align 8, !tbaa !42
  call void @llvm.lifetime.start.p0(i64 8, ptr %8) #6
  call void @llvm.lifetime.start.p0(i64 4, ptr %9) #6
  br label %11

11:                                               ; preds = %24, %3
  %12 = load ptr, ptr %5, align 8, !tbaa !15
  %13 = getelementptr inbounds nuw %struct.uv_tty_s, ptr %12, i32 0, i32 13
  %14 = getelementptr inbounds nuw %struct.uv__io_s, ptr %13, i32 0, i32 5
  %15 = load i32, ptr %14, align 8, !tbaa !33
  %16 = call i32 (i32, i64, ...) @ioctl(i32 noundef %15, i64 noundef 21523, ptr noundef %8) #6
  store i32 %16, ptr %9, align 4, !tbaa !4
  br label %17

17:                                               ; preds = %11
  %18 = load i32, ptr %9, align 4, !tbaa !4
  %19 = icmp eq i32 %18, -1
  br i1 %19, label %20, label %24

20:                                               ; preds = %17
  %21 = call ptr @__errno_location() #7
  %22 = load i32, ptr %21, align 4, !tbaa !4
  %23 = icmp eq i32 %22, 4
  br label %24

24:                                               ; preds = %20, %17
  %25 = phi i1 [ false, %17 ], [ %23, %20 ]
  br i1 %25, label %11, label %26, !llvm.loop !44

26:                                               ; preds = %24
  %27 = load i32, ptr %9, align 4, !tbaa !4
  %28 = icmp eq i32 %27, -1
  br i1 %28, label %29, label %33

29:                                               ; preds = %26
  %30 = call ptr @__errno_location() #7
  %31 = load i32, ptr %30, align 4, !tbaa !4
  %32 = sub nsw i32 0, %31
  store i32 %32, ptr %4, align 4
  store i32 1, ptr %10, align 4
  br label %42

33:                                               ; preds = %26
  %34 = getelementptr inbounds nuw %struct.winsize, ptr %8, i32 0, i32 1
  %35 = load i16, ptr %34, align 2, !tbaa !45
  %36 = zext i16 %35 to i32
  %37 = load ptr, ptr %6, align 8, !tbaa !42
  store i32 %36, ptr %37, align 4, !tbaa !4
  %38 = getelementptr inbounds nuw %struct.winsize, ptr %8, i32 0, i32 0
  %39 = load i16, ptr %38, align 2, !tbaa !47
  %40 = zext i16 %39 to i32
  %41 = load ptr, ptr %7, align 8, !tbaa !42
  store i32 %40, ptr %41, align 4, !tbaa !4
  store i32 0, ptr %4, align 4
  store i32 1, ptr %10, align 4
  br label %42

42:                                               ; preds = %33, %29
  call void @llvm.lifetime.end.p0(i64 4, ptr %9) #6
  call void @llvm.lifetime.end.p0(i64 8, ptr %8) #6
  %43 = load i32, ptr %4, align 4
  ret i32 %43
}